; Function Attrs: mustprogress nounwind uwtable
define void @_ZN32pxrInternal_v0_24__pxrReserved__30UsdImagingRenderProductAdapterD2Ev(ptr nocapture noundef nonnull readonly align 8 dereferenceable(32) %0) unnamed_addr #1 align 2 personality ptr @__gxx_personality_v0 {
  %2 = getelementptr inbounds i8, ptr %0, i64 16
  %3 = load ptr, ptr %2, align 8
  %.not.i.i.i.i.i = icmp eq ptr %3, null
  br i1 %.not.i.i.i.i.i, label %_ZN32pxrInternal_v0_24__pxrReserved__21UsdImagingPrimAdapterD2Ev.exit, label %4

4:                                                ; preds = %1
  %5 = getelementptr inbounds nuw i8, ptr %3, i64 12
  %6 = load i8, ptr @__libc_single_threaded, align 1
  %.not.i.i.i.i.i.i = icmp eq i8 %6, 0
  br i1 %.not.i.i.i.i.i.i, label %10, label %7

7:                                                ; preds = %4
  %8 = load i32, ptr %5, align 4
  %9 = add nsw i32 %8, -1
  store i32 %9, ptr %5, align 4
  br label %12

10:                                               ; preds = %4
  %11 = atomicrmw volatile add ptr %5, i32 -1 acq_rel, align 4
  br label %12

12:                                               ; preds = %10, %7
  %.0.i.i.i.i.i.i = phi i32 [ %8, %7 ], [ %11, %10 ]
  %13 = icmp eq i32 %.0.i.i.i.i.i.i, 1
  br i1 %13, label %14, label %_ZN32pxrInternal_v0_24__pxrReserved__21UsdImagingPrimAdapterD2Ev.exit

14:                                               ; preds = %12
  %15 = load ptr, ptr %3, align 8
  %16 = getelementptr inbounds i8, ptr %15, i64 24
  %17 = load ptr, ptr %16, align 8
  tail call void %17(ptr noundef nonnull align 8 dereferenceable(16) %3) #17
  br label %_ZN32pxrInternal_v0_24__pxrReserved__21UsdImagingPrimAdapterD2Ev.exit

_ZN32pxrInternal_v0_24__pxrReserved__21UsdImagingPrimAdapterD2Ev.exit: ; preds = %1, %12, %14
  ret void
}